Certificate:
    Data:
        Version: 1 (0x0)
        Serial Number: 0 (0x0)
    Signature Algorithm: sha256WithRSAEncryption
        Issuer: C=US, CN=Test Intermediate CA
        Validity
            Not Before: Jun  1 10:21:52 2023 GMT
            Not After : May 31 10:21:52 2024 GMT
        Subject: C=US, CN=Test Leaf
        Subject Public Key Info:
            Public Key Algorithm: rsaEncryption
                Public-Key: (2048 bit)
                Modulus:
                    00:b0:40:d6:c2:38:de:07:a8:eb:81:01:9c:89:4e:
                    fa:2c:c3:06:67:78:69:66:23:7b:72:3d:7f:8c:d6:
                    9d:60:d2:aa:1f:77:1d:35:67:25:e5:24:10:f5:64:
                    f6:01:41:7d:3c:a0:22:88:a1:06:30:fc:39:01:cb:
                    01:00:ab:41:7b:12:86:be:84:c6:e4:d3:9e:b0:3f:
                    65:62:29:04:da:ce:a0:88:73:71:54:96:73:6a:34:
                    a4:e7:a2:09:98:56:7e:e5:1b:9e:9f:20:e3:4f:58:
                    89:6e:e0:4e:88:fb:13:23:7c:94:39:d9:53:9a:ba:
                    31:aa:70:d1:2c:34:b3:8b:6c:36:c4:3d:da:43:91:
                    2e:18:55:92:79:04:64:c5:34:17:ee:bf:a6:31:3b:
                    0f:c6:ba:f3:e5:79:2c:ac:a9:18:61:1f:73:2a:8e:
                    c2:9a:20:3d:c5:88:c5:03:62:4e:63:12:ca:51:69:
                    2a:ac:1e:47:0d:98:1f:b8:0b:6d:72:02:93:45:35:
                    0a:bd:b0:ab:31:40:7d:60:13:62:d8:5f:ed:4c:4c:
                    26:7d:67:91:00:20:7e:b1:15:16:e0:07:fe:dc:5a:
                    85:0a:9c:bc:86:69:80:dc:60:83:90:14:23:ff:9e:
                    a0:2f:17:70:0a:12:c5:67:83:15:0a:7c:db:85:05:
                    bc:07
                Exponent: 65537 (0x10001)
    Signature Algorithm: sha256WithRSAEncryption
         14:e5:7f:eb:4b:b7:10:4d:88:2c:c7:a4:5e:a5:03:48:db:e0:
         9a:cd:a7:5d:cd:95:f1:ce:f0:9c:66:d8:8a:f9:12:6c:bc:66:
         a7:02:6b:10:ec:05:e6:1e:9b:e7:9e:2f:51:71:79:0f:dd:98:
         46:c6:6f:e4:ff:58:14:fb:6e:a5:6c:73:5c:dd:47:81:a1:96:
         43:65:46:9e:e3:e0:61:b9:39:6a:d6:0d:6d:84:9f:37:f2:65:
         ff:05:34:39:a7:09:21:00:6e:4a:63:4b:2c:b6:56:a9:65:75:
         cb:95:fc:e8:10:16:6b:29:fd:eb:96:9d:49:40:4f:fa:62:de:
         8a:e3:2a:07:9c:80:58:c1:68:5f:7c:7a:a3:d4:90:c9:08:cb:
         e3:40:d3:a3:fc:7e:ae:03:01:c6:4b:3b:97:2e:f5:ec:3c:59:
         f9:81:94:e1:72:ff:b8:df:74:27:3e:56:6e:db:1b:81:89:07:
         16:20:b1:d5:b8:b6:f4:1b:cb:e4:1d:9e:09:a3:7e:66:c7:96:
         bb:e4:47:8e:6a:c0:cc:f5:f3:b0:7e:07:c0:c9:fa:06:99:0f:
         6f:81:35:9f:2a:1e:49:3a:19:44:6b:18:ca:29:68:97:8a:47:
         a9:94:af:70:7d:df:a5:d9:a9:57:30:80:a8:db:43:11:75:5c:
         06:cc:ef:fd
-----BEGIN CERTIFICATE-----
MIICwTCCAakCAQAwDQYJKoZIhvcNAQELBQAwLDELMAkGA1UEBhMCVVMxHTAbBgNV
BAMMFFRlc3QgSW50ZXJtZWRpYXRlIENBMB4XDTIzMDYwMTEwMjE1MloXDTI0MDUz
MTEwMjE1MlowITELMAkGA1UEBhMCVVMxEjAQBgNVBAMMCVRlc3QgTGVhZjCCASIw
DQYJKoZIhvcNAQEBBQADggEPADCCAQoCggEBALBA1sI43geo64EBnIlO+izDBmd4
aWYje3I9f4zWnWDSqh93HTVnJeUkEPVk9gFBfTygIoihBjD8OQHLAQCrQXsShr6E
xuTTnrA/ZWIpBNrOoIhzcVSWc2o0pOeiCZhWfuUbnp8g409YiW7gToj7EyN8lDnZ
U5q6Mapw0Sw0s4tsNsQ92kORLhhVknkEZMU0F+6/pjE7D8a68+V5LKypGGEfcyqO
wpogPcWIxQNiTmMSylFpKqweRw2YH7gLbXICk0U1Cr2wqzFAfWATYthf7UxMJn1n
kQAgfrEVFuAH/txahQqcvIZpgNxgg5AUI/+eoC8XcAoSxWeDFQp824UFvAcCAwEA
ATANBgkqhkiG9w0BAQsFAAOCAQEAFOV/60u3EE2ILMekXqUDSNvgms2nXc2V8c7w
nGbYivkSbLxmpwJrEOwF5h6b554vUXF5D92YRsZv5P9YFPtupWxzXN1HgaGWQ2VG
nuPgYbk5atYNbYSfN/Jl/wU0OacJIQBuSmNLLLZWqWV1y5X86BAWayn965adSUBP
+mLeiuMqB5yAWMFoX3x6o9SQyQjL40DTo/x+rgMBxks7ly717DxZ+YGU4XL/uN90
Jz5WbtsbgYkHFiCx1bi29BvL5B2eCaN+ZseWu+RHjmrAzPXzsH4HwMn6BpkPb4E1
nyoeSToZRGsYyilol4pHqZSvcH3fpdmpVzCAqNtDEXVcBszv/Q==
-----END CERTIFICATE-----
