Certificate:
    Data:
        Version: 3 (0x2)
        Serial Number: 2 (0x2)
        Signature Algorithm: sha256WithRSAEncryption
        Issuer: C=US, CN=Test Intermediate CA
        Validity
            Not Before: Aug 14 14:28:15 2023 GMT
            Not After : Aug 13 14:28:15 2024 GMT
        Subject: C=US, CN=dmic.com
        Subject Public Key Info:
            Public Key Algorithm: rsaEncryption
                RSA Public-Key: (2048 bit)
                Modulus:
                    00:cc:2a:75:21:83:26:60:d5:63:1c:df:f1:f1:7b:
                    8c:4d:48:09:ca:e9:86:57:19:0b:d5:a3:f2:c2:d3:
                    c8:d6:b0:39:1e:8f:a7:29:0d:bd:59:e6:68:57:c4:
                    f4:15:0b:5c:56:30:ee:d7:08:99:61:f5:c9:67:f0:
                    b9:6a:ad:4c:10:9a:5e:e7:31:90:52:d9:43:0e:b7:
                    e9:cf:93:02:78:bd:89:6d:78:61:31:53:55:9d:c0:
                    ed:61:17:ef:3e:33:4c:4d:6a:ad:73:b3:d9:1b:d4:
                    96:5a:26:be:39:51:4c:db:28:ee:b2:33:ad:15:f8:
                    5c:ee:2a:36:bc:a4:70:06:47:9c:fb:b5:86:79:3c:
                    85:6d:b7:46:25:a7:a6:14:26:40:cc:fa:cc:e6:eb:
                    a3:8b:b5:b4:17:dd:4e:d9:45:f8:c2:67:ff:a1:90:
                    b4:84:0f:90:b9:d0:ef:82:5e:59:e2:0a:3a:f2:49:
                    bd:86:aa:8f:4b:83:85:69:cf:75:e6:b9:aa:06:39:
                    00:a1:1c:60:ba:99:3a:c8:95:7a:8d:72:72:5d:42:
                    1e:6c:86:e9:79:1c:af:75:4e:80:16:91:c1:f5:86:
                    c1:a3:84:39:8f:1c:25:1d:f0:58:7d:96:66:50:b8:
                    25:ab:c1:cc:d0:12:2e:34:3a:0a:83:b3:2b:cb:30:
                    04:29
                Exponent: 65537 (0x10001)
        X509v3 extensions:
            X509v3 Subject Alternative Name: 
                DNS:dmic.com, DNS:*.dmic.com
    Signature Algorithm: sha256WithRSAEncryption
         79:c6:89:70:e9:16:9c:f0:10:26:5e:74:8f:49:eb:a6:2e:f9:
         34:ce:66:04:a5:e7:bc:55:21:1b:91:da:7b:b2:77:fd:97:60:
         ae:64:7c:4a:98:73:8a:18:29:c8:af:5e:cc:c0:5d:89:0c:37:
         4e:26:75:f7:a3:e3:bd:55:bb:ab:91:f5:a2:92:c4:4d:0d:5a:
         5f:57:91:05:fd:d6:03:6a:bc:ae:98:8c:96:a7:ed:75:8e:48:
         f3:06:6c:7d:e1:ed:40:c1:5b:32:fa:0f:77:de:2b:7a:d4:9e:
         fc:0a:46:3a:03:43:20:10:9f:be:e1:cc:02:c3:88:40:d9:d9:
         37:aa:d4:ac:58:1f:ee:3e:92:83:6b:40:39:33:77:e0:e8:40:
         57:4c:0a:61:4e:ee:40:3f:9e:45:4f:66:95:42:2c:7d:a0:63:
         99:e1:79:e4:99:16:85:39:02:a0:75:22:af:4e:8d:ab:c4:b2:
         10:be:8e:bf:48:1e:6a:26:bd:6a:0f:a9:ab:31:c1:27:92:4c:
         f7:9a:35:4d:3a:17:77:67:6b:a0:7f:be:60:2d:0b:ed:f0:e2:
         ab:91:b9:94:68:7d:33:5c:c7:90:0b:d5:9b:6a:e6:b2:a3:46:
         4e:2a:67:79:f7:00:15:bb:c6:28:dc:e9:7d:a2:fb:19:03:1c:
         fc:5f:fa:02
-----BEGIN CERTIFICATE-----
MIIC6jCCAdKgAwIBAgIBAjANBgkqhkiG9w0BAQsFADAsMQswCQYDVQQGEwJVUzEd
MBsGA1UEAwwUVGVzdCBJbnRlcm1lZGlhdGUgQ0EwHhcNMjMwODE0MTQyODE1WhcN
MjQwODEzMTQyODE1WjAgMQswCQYDVQQGEwJVUzERMA8GA1UEAwwIZG1pYy5jb20w
ggEiMA0GCSqGSIb3DQEBAQUAA4IBDwAwggEKAoIBAQDMKnUhgyZg1WMc3/Hxe4xN
SAnK6YZXGQvVo/LC08jWsDkej6cpDb1Z5mhXxPQVC1xWMO7XCJlh9cln8LlqrUwQ
ml7nMZBS2UMOt+nPkwJ4vYlteGExU1WdwO1hF+8+M0xNaq1zs9kb1JZaJr45UUzb
KO6yM60V+FzuKja8pHAGR5z7tYZ5PIVtt0Ylp6YUJkDM+szm66OLtbQX3U7ZRfjC
Z/+hkLSED5C50O+CXlniCjrySb2Gqo9Lg4Vpz3XmuaoGOQChHGC6mTrIlXqNcnJd
Qh5shul5HK91ToAWkcH1hsGjhDmPHCUd8Fh9lmZQuCWrwczQEi40OgqDsyvLMAQp
AgMBAAGjIzAhMB8GA1UdEQQYMBaCCGRtaWMuY29tggoqLmRtaWMuY29tMA0GCSqG
SIb3DQEBCwUAA4IBAQB5xolw6Rac8BAmXnSPSeumLvk0zmYEpee8VSEbkdp7snf9
l2CuZHxKmHOKGCnIr17MwF2JDDdOJnX3o+O9VburkfWiksRNDVpfV5EF/dYDaryu
mIyWp+11jkjzBmx94e1AwVsy+g933it61J78CkY6A0MgEJ++4cwCw4hA2dk3qtSs
WB/uPpKDa0A5M3fg6EBXTAphTu5AP55FT2aVQix9oGOZ4XnkmRaFOQKgdSKvTo2r
xLIQvo6/SB5qJr1qD6mrMcEnkkz3mjVNOhd3Z2ugf75gLQvt8OKrkbmUaH0zXMeQ
C9Wbauayo0ZOKmd59wAVu8Yo3Ol9ovsZAxz8X/oC
-----END CERTIFICATE-----
