Certificate:
    Data:
        Version: 3 (0x2)
        Serial Number: 3 (0x3)
        Signature Algorithm: sha256WithRSAEncryption
        Issuer: C=US, CN=Test Root CA
        Validity
            Not Before: Aug 14 14:26:26 2023 GMT
            Not After : Aug 13 14:26:26 2025 GMT
        Subject: C=US, CN=Test Intermediate CA
        Subject Public Key Info:
            Public Key Algorithm: rsaEncryption
                RSA Public-Key: (2048 bit)
                Modulus:
                    00:c4:16:4f:8f:07:35:dc:78:2b:52:e5:68:62:a5:
                    18:a6:67:d1:80:d8:d9:3d:a8:c6:36:36:63:57:27:
                    b1:a2:fe:63:8d:69:88:09:fe:92:e0:50:78:63:30:
                    a0:53:b3:0e:69:cb:20:60:d0:39:1c:10:b7:47:dd:
                    e5:6a:90:c1:13:65:25:b6:cb:0f:c3:6d:66:f1:ff:
                    5e:9b:d8:d3:3c:04:1b:ea:f4:d3:0b:94:87:86:3e:
                    c2:a4:c8:48:2e:47:6b:67:bb:f0:48:64:96:66:66:
                    e7:49:8a:8c:c3:b2:f0:1d:76:a5:e2:13:70:a4:0c:
                    fb:21:32:ca:36:af:75:2e:a4:31:7e:54:6c:a1:28:
                    99:59:50:ba:96:ea:bf:b1:86:68:7f:65:ae:1d:21:
                    15:82:4c:32:53:86:2f:b5:e5:2e:97:aa:38:19:af:
                    ae:f1:b4:f9:03:f1:84:10:d8:e7:8e:5f:92:ae:2f:
                    e0:ba:25:34:af:f9:2f:be:e2:45:fc:4e:bb:fb:70:
                    16:1f:bb:de:a1:b5:89:6a:5f:6d:3e:40:bc:31:34:
                    3b:72:e1:5f:3e:b5:bf:98:f5:3a:57:20:a2:f5:41:
                    ed:7a:23:37:4e:12:4f:41:07:ee:01:17:c7:70:97:
                    15:98:55:0c:fe:3b:09:0b:a9:ba:4d:81:82:ce:57:
                    a1:9d
                Exponent: 65537 (0x10001)
        X509v3 extensions:
            X509v3 Basic Constraints: critical
                CA:TRUE
            X509v3 Key Usage: critical
                Certificate Sign
    Signature Algorithm: sha256WithRSAEncryption
         95:aa:a8:20:4d:e6:25:ad:99:2f:92:d4:91:9a:41:c9:f9:13:
         38:b1:f1:6b:18:ae:30:f8:54:be:a6:d9:2f:47:b4:61:c6:b3:
         a5:59:9b:92:35:aa:88:37:c1:cf:8f:9b:f5:b5:f5:94:53:94:
         d2:1d:07:14:7b:d8:d7:f0:18:5b:e2:77:78:1d:f8:de:fa:57:
         da:6e:39:f8:7d:c3:e5:d7:10:3d:a3:90:9e:4b:e5:d1:a1:f2:
         e8:3b:a2:30:46:b1:06:c7:e6:c7:17:60:03:ce:05:67:5c:50:
         f7:49:20:a0:60:43:ca:98:d1:a2:67:11:62:87:87:35:30:db:
         94:f1:8a:b0:10:4f:07:cb:b9:6d:76:b4:b5:b1:92:5a:7e:20:
         63:37:6b:61:22:7f:cc:03:02:15:3e:cf:17:4a:d5:ac:11:e3:
         1e:2e:f5:70:32:03:ce:28:ca:84:5e:ef:97:40:5c:9d:04:7e:
         d2:dc:da:d4:8d:8e:8c:13:b3:dd:81:92:cf:e6:99:5e:fe:6d:
         d5:45:44:8a:89:86:96:d4:d9:dc:37:47:fa:1e:de:50:a2:17:
         b6:11:c6:ae:18:1d:d3:13:f6:90:83:82:85:c3:b4:84:66:da:
         46:ca:6c:12:ba:a8:d8:58:da:99:35:1e:7a:b7:b9:8e:18:ae:
         2e:ad:92:80
-----BEGIN CERTIFICATE-----
MIIC7jCCAdagAwIBAgIBAzANBgkqhkiG9w0BAQsFADAkMQswCQYDVQQGEwJVUzEV
MBMGA1UEAwwMVGVzdCBSb290IENBMB4XDTIzMDgxNDE0MjYyNloXDTI1MDgxMzE0
MjYyNlowLDELMAkGA1UEBhMCVVMxHTAbBgNVBAMMFFRlc3QgSW50ZXJtZWRpYXRl
IENBMIIBIjANBgkqhkiG9w0BAQEFAAOCAQ8AMIIBCgKCAQEAxBZPjwc13HgrUuVo
YqUYpmfRgNjZPajGNjZjVyexov5jjWmICf6S4FB4YzCgU7MOacsgYNA5HBC3R93l
apDBE2UltssPw21m8f9em9jTPAQb6vTTC5SHhj7CpMhILkdrZ7vwSGSWZmbnSYqM
w7LwHXal4hNwpAz7ITLKNq91LqQxflRsoSiZWVC6luq/sYZof2WuHSEVgkwyU4Yv
teUul6o4Ga+u8bT5A/GEENjnjl+Sri/guiU0r/kvvuJF/E67+3AWH7veobWJal9t
PkC8MTQ7cuFfPrW/mPU6VyCi9UHteiM3ThJPQQfuARfHcJcVmFUM/jsJC6m6TYGC
zlehnQIDAQABoyMwITAPBgNVHRMBAf8EBTADAQH/MA4GA1UdDwEB/wQEAwICBDAN
BgkqhkiG9w0BAQsFAAOCAQEAlaqoIE3mJa2ZL5LUkZpByfkTOLHxaxiuMPhUvqbZ
L0e0YcazpVmbkjWqiDfBz4+b9bX1lFOU0h0HFHvY1/AYW+J3eB343vpX2m45+H3D
5dcQPaOQnkvl0aHy6DuiMEaxBsfmxxdgA84FZ1xQ90kgoGBDypjRomcRYoeHNTDb
lPGKsBBPB8u5bXa0tbGSWn4gYzdrYSJ/zAMCFT7PF0rVrBHjHi71cDIDzijKhF7v
l0BcnQR+0tza1I2OjBOz3YGSz+aZXv5t1UVEiomGltTZ3DdH+h7eUKIXthHGrhgd
0xP2kIOChcO0hGbaRspsErqo2FjamTUeere5jhiuLq2SgA==
-----END CERTIFICATE-----
