Certificate:
    Data:
        Version: 1 (0x0)
        Serial Number: 1 (0x1)
    Signature Algorithm: sha256WithRSAEncryption
        Issuer: C=US, CN=Test Intermediate CA
        Validity
            Not Before: Jun  1 10:43:12 2023 GMT
            Not After : May 31 10:43:12 2024 GMT
        Subject: C=US, CN=dmic.com
        Subject Public Key Info:
            Public Key Algorithm: rsaEncryption
                Public-Key: (2048 bit)
                Modulus:
                    00:b0:40:d6:c2:38:de:07:a8:eb:81:01:9c:89:4e:
                    fa:2c:c3:06:67:78:69:66:23:7b:72:3d:7f:8c:d6:
                    9d:60:d2:aa:1f:77:1d:35:67:25:e5:24:10:f5:64:
                    f6:01:41:7d:3c:a0:22:88:a1:06:30:fc:39:01:cb:
                    01:00:ab:41:7b:12:86:be:84:c6:e4:d3:9e:b0:3f:
                    65:62:29:04:da:ce:a0:88:73:71:54:96:73:6a:34:
                    a4:e7:a2:09:98:56:7e:e5:1b:9e:9f:20:e3:4f:58:
                    89:6e:e0:4e:88:fb:13:23:7c:94:39:d9:53:9a:ba:
                    31:aa:70:d1:2c:34:b3:8b:6c:36:c4:3d:da:43:91:
                    2e:18:55:92:79:04:64:c5:34:17:ee:bf:a6:31:3b:
                    0f:c6:ba:f3:e5:79:2c:ac:a9:18:61:1f:73:2a:8e:
                    c2:9a:20:3d:c5:88:c5:03:62:4e:63:12:ca:51:69:
                    2a:ac:1e:47:0d:98:1f:b8:0b:6d:72:02:93:45:35:
                    0a:bd:b0:ab:31:40:7d:60:13:62:d8:5f:ed:4c:4c:
                    26:7d:67:91:00:20:7e:b1:15:16:e0:07:fe:dc:5a:
                    85:0a:9c:bc:86:69:80:dc:60:83:90:14:23:ff:9e:
                    a0:2f:17:70:0a:12:c5:67:83:15:0a:7c:db:85:05:
                    bc:07
                Exponent: 65537 (0x10001)
    Signature Algorithm: sha256WithRSAEncryption
         6a:c6:99:35:69:d4:ba:7b:bd:a8:da:e9:67:d9:8c:0e:bd:be:
         e4:b5:57:d8:c8:c4:71:f2:ef:39:ec:d0:51:0a:e8:1c:0f:63:
         cb:37:44:a7:f9:3b:65:90:f8:94:15:49:fb:79:d0:c0:3b:48:
         02:cf:46:f7:e3:3e:ed:30:11:62:4e:cf:54:92:37:93:94:11:
         4b:6a:fb:3b:a1:d7:cc:e2:54:9a:f3:0e:1b:93:4a:d7:75:34:
         fc:d1:bf:eb:4f:99:e8:f3:76:3a:8f:0e:81:a8:c9:45:04:85:
         26:bc:c0:5d:15:e9:14:41:c1:5c:cb:43:fc:e5:e3:4c:8f:52:
         e2:03:06:96:6f:aa:ac:47:ff:d2:29:97:79:dd:5e:60:de:d9:
         7d:98:61:d2:a8:77:d0:bd:18:84:bd:38:4a:98:15:7c:9d:c3:
         4b:f0:4c:b0:e5:ce:7b:f1:d2:97:f0:00:8a:d7:e9:4d:bf:d4:
         1b:b2:53:bf:4b:5b:bd:0d:d9:98:26:a9:09:cb:94:14:cc:15:
         a7:51:ae:47:5a:0a:86:b8:ce:b4:dd:63:fd:5e:82:87:85:bc:
         2b:f8:0b:19:ad:c7:8d:4b:a2:8a:87:0d:c8:06:37:60:7b:b1:
         b3:8b:fd:83:5b:23:d9:e1:c7:d7:ec:7b:ac:04:7e:24:82:dc:
         26:17:3d:87
-----BEGIN CERTIFICATE-----
MIICwDCCAagCAQEwDQYJKoZIhvcNAQELBQAwLDELMAkGA1UEBhMCVVMxHTAbBgNV
BAMMFFRlc3QgSW50ZXJtZWRpYXRlIENBMB4XDTIzMDYwMTEwNDMxMloXDTI0MDUz
MTEwNDMxMlowIDELMAkGA1UEBhMCVVMxETAPBgNVBAMMCGRtaWMuY29tMIIBIjAN
BgkqhkiG9w0BAQEFAAOCAQ8AMIIBCgKCAQEAsEDWwjjeB6jrgQGciU76LMMGZ3hp
ZiN7cj1/jNadYNKqH3cdNWcl5SQQ9WT2AUF9PKAiiKEGMPw5AcsBAKtBexKGvoTG
5NOesD9lYikE2s6giHNxVJZzajSk56IJmFZ+5RuenyDjT1iJbuBOiPsTI3yUOdlT
mroxqnDRLDSzi2w2xD3aQ5EuGFWSeQRkxTQX7r+mMTsPxrrz5XksrKkYYR9zKo7C
miA9xYjFA2JOYxLKUWkqrB5HDZgfuAttcgKTRTUKvbCrMUB9YBNi2F/tTEwmfWeR
ACB+sRUW4Af+3FqFCpy8hmmA3GCDkBQj/56gLxdwChLFZ4MVCnzbhQW8BwIDAQAB
MA0GCSqGSIb3DQEBCwUAA4IBAQBqxpk1adS6e72o2uln2YwOvb7ktVfYyMRx8u85
7NBRCugcD2PLN0Sn+TtlkPiUFUn7edDAO0gCz0b34z7tMBFiTs9UkjeTlBFLavs7
odfM4lSa8w4bk0rXdTT80b/rT5no83Y6jw6BqMlFBIUmvMBdFekUQcFcy0P85eNM
j1LiAwaWb6qsR//SKZd53V5g3tl9mGHSqHfQvRiEvThKmBV8ncNL8Eyw5c578dKX
8ACK1+lNv9QbslO/S1u9DdmYJqkJy5QUzBWnUa5HWgqGuM603WP9XoKHhbwr+AsZ
rceNS6KKhw3IBjdge7Gzi/2DWyPZ4cfX7HusBH4kgtwmFz2H
-----END CERTIFICATE-----
Certificate:
    Data:
        Version: 3 (0x2)
        Serial Number: 1 (0x1)
    Signature Algorithm: sha256WithRSAEncryption
        Issuer: C=US, CN=Test Root CA
        Validity
            Not Before: Jun  1 10:12:32 2023 GMT
            Not After : May 31 10:12:32 2025 GMT
        Subject: C=US, CN=Test Intermediate CA
        Subject Public Key Info:
            Public Key Algorithm: rsaEncryption
                Public-Key: (2048 bit)
                Modulus:
                    00:c8:e0:b2:a8:97:d5:32:af:03:7d:0a:b3:be:6f:
                    4b:82:7b:61:af:0a:0c:8f:83:a2:f0:a1:80:b2:38:
                    bb:3e:67:71:1e:10:9d:2c:6e:8d:b9:a9:88:5a:05:
                    14:c4:4c:db:99:1a:82:79:0c:8c:bf:f2:bd:98:f4:
                    d2:d4:16:26:0a:43:b8:9c:ee:77:6f:cf:75:58:cb:
                    80:21:dd:ba:8b:7d:23:39:c4:3c:58:ae:63:1f:5d:
                    df:c0:f0:a4:5f:93:38:07:8b:d2:6e:5b:a0:3f:83:
                    5d:12:86:89:d2:18:69:9d:8b:83:05:d1:9b:ab:c5:
                    56:97:e3:9c:0a:18:fb:1c:ee:22:f4:47:2e:7c:9e:
                    1f:45:88:ca:c2:96:ae:46:59:3e:56:2c:d1:21:c8:
                    24:2c:ab:ee:95:4d:bf:84:4d:8c:6d:97:bb:ba:a6:
                    c5:e0:79:cb:0b:76:05:58:71:e6:ab:2d:48:13:bb:
                    e8:29:94:f4:97:50:83:db:a1:ad:5c:93:1e:4a:d4:
                    a1:c0:42:80:ba:89:06:27:6b:11:cd:25:52:ad:e0:
                    63:02:3e:11:3e:e0:e0:e6:d5:da:96:70:2a:0d:51:
                    60:96:cf:8e:07:3c:b4:4f:c2:4c:11:d1:a3:83:2f:
                    68:aa:3f:0d:28:f1:49:4d:7c:c4:32:72:49:ef:d0:
                    dd:29
                Exponent: 65537 (0x10001)
        X509v3 extensions:
            X509v3 Basic Constraints: critical
                CA:TRUE
            X509v3 Key Usage: critical
                Certificate Sign
    Signature Algorithm: sha256WithRSAEncryption
         5c:ed:2b:7a:5f:10:19:e6:9c:4b:06:16:37:29:91:8a:45:a3:
         b3:1d:b4:6b:11:a1:c5:8a:e2:3b:be:67:9a:d2:e1:2e:c4:c4:
         92:14:55:f7:1e:2c:8b:0c:a2:0d:cb:cd:a8:39:ec:f5:84:fb:
         3a:b7:47:5f:ce:9c:aa:96:79:81:94:24:76:c8:e3:cd:0a:20:
         5c:bd:18:b7:8e:c5:5f:49:e0:73:b1:7c:b3:24:dd:bb:40:1b:
         16:6d:f1:91:0a:1c:18:af:23:5a:f7:56:d9:c9:0d:cc:d4:fe:
         22:6c:91:92:d9:58:64:b9:4b:c0:09:80:08:6b:84:d8:06:4c:
         18:b9:d0:3b:e9:5c:fe:01:3a:68:d4:6f:5e:a3:7d:b7:e4:a6:
         30:2b:d0:cb:16:0c:ad:c6:98:5d:ce:4c:40:0b:85:88:9e:9f:
         61:2b:61:c4:2b:8a:fa:96:6d:77:f1:d2:b8:e7:fd:8d:49:71:
         40:16:6c:b1:2d:57:73:0c:47:4d:b2:24:8e:62:25:f5:97:d4:
         45:b3:e9:e9:6d:7e:27:06:2b:32:98:59:70:2a:e0:1d:86:65:
         91:60:a6:82:de:d0:53:5c:4e:8c:84:5e:93:f4:90:e4:2f:0e:
         81:c2:5e:f7:07:3e:83:7c:72:fe:06:d4:2a:d4:81:76:1c:59:
         7e:55:9a:2c
-----BEGIN CERTIFICATE-----
MIIC7jCCAdagAwIBAgIBATANBgkqhkiG9w0BAQsFADAkMQswCQYDVQQGEwJVUzEV
MBMGA1UEAwwMVGVzdCBSb290IENBMB4XDTIzMDYwMTEwMTIzMloXDTI1MDUzMTEw
MTIzMlowLDELMAkGA1UEBhMCVVMxHTAbBgNVBAMMFFRlc3QgSW50ZXJtZWRpYXRl
IENBMIIBIjANBgkqhkiG9w0BAQEFAAOCAQ8AMIIBCgKCAQEAyOCyqJfVMq8DfQqz
vm9LgnthrwoMj4Oi8KGAsji7PmdxHhCdLG6NuamIWgUUxEzbmRqCeQyMv/K9mPTS
1BYmCkO4nO53b891WMuAId26i30jOcQ8WK5jH13fwPCkX5M4B4vSblugP4NdEoaJ
0hhpnYuDBdGbq8VWl+OcChj7HO4i9EcufJ4fRYjKwpauRlk+VizRIcgkLKvulU2/
hE2MbZe7uqbF4HnLC3YFWHHmqy1IE7voKZT0l1CD26GtXJMeStShwEKAuokGJ2sR
zSVSreBjAj4RPuDg5tXalnAqDVFgls+OBzy0T8JMEdGjgy9oqj8NKPFJTXzEMnJJ
79DdKQIDAQABoyMwITAPBgNVHRMBAf8EBTADAQH/MA4GA1UdDwEB/wQEAwICBDAN
BgkqhkiG9w0BAQsFAAOCAQEAXO0rel8QGeacSwYWNymRikWjsx20axGhxYriO75n
mtLhLsTEkhRV9x4siwyiDcvNqDns9YT7OrdHX86cqpZ5gZQkdsjjzQogXL0Yt47F
X0ngc7F8syTdu0AbFm3xkQocGK8jWvdW2ckNzNT+ImyRktlYZLlLwAmACGuE2AZM
GLnQO+lc/gE6aNRvXqN9t+SmMCvQyxYMrcaYXc5MQAuFiJ6fYSthxCuK+pZtd/HS
uOf9jUlxQBZssS1XcwxHTbIkjmIl9ZfURbPp6W1+JwYrMphZcCrgHYZlkWCmgt7Q
U1xOjIRek/SQ5C8OgcJe9wc+g3xy/gbUKtSBdhxZflWaLA==
-----END CERTIFICATE-----
Certificate:
    Data:
        Version: 3 (0x2)
        Serial Number: 0 (0x0)
    Signature Algorithm: sha256WithRSAEncryption
        Issuer: C=US, CN=Test Root CA
        Validity
            Not Before: Jun  1 10:11:14 2023 GMT
            Not After : May 31 10:11:14 2026 GMT
        Subject: C=US, CN=Test Root CA
        Subject Public Key Info:
            Public Key Algorithm: rsaEncryption
                Public-Key: (2048 bit)
                Modulus:
                    00:db:7d:de:b6:a5:b7:0b:13:6d:15:cb:ba:44:45:
                    1b:b3:1d:05:4f:bc:07:1b:b5:ed:58:1b:b2:88:56:
                    5f:1f:07:c5:0f:67:2b:1f:16:00:1a:51:0d:97:24:
                    f3:19:96:6d:e0:19:07:69:3b:44:e4:c2:eb:6d:c3:
                    89:60:10:9c:84:a3:62:71:0f:74:07:7c:de:3b:9e:
                    f5:5d:35:b5:ed:9f:09:64:8a:42:31:4a:d2:1a:93:
                    1a:1a:c7:65:89:3e:0e:96:3c:17:8f:30:ca:d0:e2:
                    b9:30:01:6c:22:3e:a8:fd:25:69:06:1d:43:2c:3e:
                    39:eb:1f:82:a3:c6:08:bb:2f:fd:b8:31:4f:b3:a4:
                    c8:3c:74:28:df:cb:87:8f:17:f3:90:85:d5:76:96:
                    e8:3e:27:25:25:10:93:8c:82:19:ad:2f:76:99:f6:
                    e0:84:69:08:ad:9e:e2:e7:91:1f:ac:1a:5c:2f:e3:
                    38:f9:90:25:05:ee:74:5d:63:93:38:9f:a2:80:21:
                    e1:9a:76:10:29:d5:fb:86:6e:e6:26:95:46:be:91:
                    ad:62:67:92:6f:f2:ff:f3:7d:fe:81:51:bc:db:8b:
                    ae:ac:98:f4:e3:01:0b:fe:38:a8:0f:9f:e9:ae:b1:
                    84:55:2d:1c:6f:21:6e:dc:cf:64:92:75:db:82:6e:
                    6d:4b
                Exponent: 65537 (0x10001)
        X509v3 extensions:
            X509v3 Basic Constraints: critical
                CA:TRUE
            X509v3 Key Usage: critical
                Certificate Sign
    Signature Algorithm: sha256WithRSAEncryption
         8b:aa:5f:51:31:ad:1c:f5:a1:a2:86:38:f2:41:41:7a:3d:85:
         59:48:55:ad:dc:ff:e0:70:ae:af:2b:70:12:4d:8f:d4:ba:ae:
         12:af:d2:52:74:99:ce:19:24:28:42:fc:db:9f:4c:e2:27:fb:
         11:f1:ad:7e:8e:c0:32:4f:95:b2:4e:29:f9:69:87:fa:3f:b5:
         66:f3:1c:3e:fb:2d:c1:13:2e:db:e5:c5:4c:58:a9:44:80:72:
         04:b2:94:a9:76:b6:96:43:0e:09:bf:86:93:ec:fd:b1:0e:f3:
         32:0a:ed:59:1b:67:6b:3b:40:c1:b9:3c:79:b4:6f:bc:d7:eb:
         5e:b8:44:9a:4c:f4:b1:3c:c4:0a:30:60:10:c1:36:3d:55:3a:
         1c:d9:10:de:0d:91:53:3b:d8:a3:ec:e9:cb:e7:e0:43:5c:de:
         82:82:cd:65:7f:2f:e0:c0:e5:cb:ae:59:ec:de:c7:4a:55:81:
         58:56:30:9b:fc:2d:7b:04:bd:b1:2e:68:32:f0:82:07:3d:45:
         ae:66:aa:70:50:52:18:cf:76:d1:09:24:77:4b:86:1e:ea:a3:
         c9:b5:59:63:bc:6d:d7:8d:ed:2d:f3:d5:6b:64:a7:fb:e1:c2:
         e7:6e:ca:62:cb:03:88:a6:ba:3a:f6:6e:6e:ef:c3:89:b0:3d:
         5e:1f:c0:6c
-----BEGIN CERTIFICATE-----
MIIC5jCCAc6gAwIBAgIBADANBgkqhkiG9w0BAQsFADAkMQswCQYDVQQGEwJVUzEV
MBMGA1UEAwwMVGVzdCBSb290IENBMB4XDTIzMDYwMTEwMTExNFoXDTI2MDUzMTEw
MTExNFowJDELMAkGA1UEBhMCVVMxFTATBgNVBAMMDFRlc3QgUm9vdCBDQTCCASIw
DQYJKoZIhvcNAQEBBQADggEPADCCAQoCggEBANt93raltwsTbRXLukRFG7MdBU+8
Bxu17VgbsohWXx8HxQ9nKx8WABpRDZck8xmWbeAZB2k7ROTC623DiWAQnISjYnEP
dAd83jue9V01te2fCWSKQjFK0hqTGhrHZYk+DpY8F48wytDiuTABbCI+qP0laQYd
Qyw+OesfgqPGCLsv/bgxT7OkyDx0KN/Lh48X85CF1XaW6D4nJSUQk4yCGa0vdpn2
4IRpCK2e4ueRH6waXC/jOPmQJQXudF1jkzifooAh4Zp2ECnV+4Zu5iaVRr6RrWJn
km/y//N9/oFRvNuLrqyY9OMBC/44qA+f6a6xhFUtHG8hbtzPZJJ124JubUsCAwEA
AaMjMCEwDwYDVR0TAQH/BAUwAwEB/zAOBgNVHQ8BAf8EBAMCAgQwDQYJKoZIhvcN
AQELBQADggEBAIuqX1ExrRz1oaKGOPJBQXo9hVlIVa3c/+Bwrq8rcBJNj9S6rhKv
0lJ0mc4ZJChC/NufTOIn+xHxrX6OwDJPlbJOKflph/o/tWbzHD77LcETLtvlxUxY
qUSAcgSylKl2tpZDDgm/hpPs/bEO8zIK7VkbZ2s7QMG5PHm0b7zX6164RJpM9LE8
xAowYBDBNj1VOhzZEN4NkVM72KPs6cvn4ENc3oKCzWV/L+DA5cuuWezex0pVgVhW
MJv8LXsEvbEuaDLwggc9Ra5mqnBQUhjPdtEJJHdLhh7qo8m1WWO8bdeN7S3z1Wtk
p/vhwuduymLLA4imujr2bm7vw4mwPV4fwGw=
-----END CERTIFICATE-----
