-----BEGIN RSA PRIVATE KEY-----
MIIEowIBAAKCAQEAzCp1IYMmYNVjHN/x8XuMTUgJyumGVxkL1aPywtPI1rA5Ho+n
KQ29WeZoV8T0FQtcVjDu1wiZYfXJZ/C5aq1MEJpe5zGQUtlDDrfpz5MCeL2JbXhh
MVNVncDtYRfvPjNMTWqtc7PZG9SWWia+OVFM2yjusjOtFfhc7io2vKRwBkec+7WG
eTyFbbdGJaemFCZAzPrM5uuji7W0F91O2UX4wmf/oZC0hA+QudDvgl5Z4go68km9
hqqPS4OFac915rmqBjkAoRxgupk6yJV6jXJyXUIebIbpeRyvdU6AFpHB9YbBo4Q5
jxwlHfBYfZZmULglq8HM0BIuNDoKg7MryzAEKQIDAQABAoIBAA3ydI/2gp+o1B17
2u5RL1N0MV8QNuIqTtmoWoQeraCk5zIERDoUuzOx/rzIMphhb0xgCWDdMIU1oi2c
jz4PWpvjv8nxY9eVCfSucaWBeHDBGetFhvY0qCufq1evp+NK49KCEBlQVuuEyUSd
Uu9dc2+hSzUXPKK8lbSbY6PdY9251WWW1O/JSI7J29Uak8rwU+Rvk0rKmMfk6/Tv
3/EviCZLVG7mlIQ4q6UJC04szu0kQiU1vQSHw0GaM+EtBKmG151bEq3wVY2NZoNh
U8dM7VeEyWT1IxOaDLRkRUGrV/h06NeJCRL+YH6wei4H1UJLJ3zjkJCQ8wgv3bZ9
yY8BuvUCgYEA74EAjc+ZLh45w6iFmoqTjgaOSpYEI0d4ZiGe1r6J9KbC3e+mSOE7
tR4z4H22QN2+PgWIuvH3IVPJU7pTc7OR+XUznLopKiDga+IgzrFKhVmV/uRIOzPL
lxGt3FKLp75x+AllggIfnuDC4ra4S5JavkerELpbBgdRAaQClkbdDjsCgYEA2jpd
dEDBV2u2xQy/pGkHs1xE10QoxOm9HOiWXQ3mFQsmQyH9cBuGumcGT0b68olnaySv
CsyxnKnvSa4Pi5Mwxf+DTRYRCKIhVONgiNRII6dui0avU14gTV7wqAAk4u6yXJbe
H+eXvkXQQyR47zi1ea+8iLqKEGFZ6n17LItInOsCgYEAgc+YvkQT0UQ+qMaxS1bq
rOLuwoxWx8xX/HsifWAeo8Sy/9mBdiTl2L/6/CUG4FePYkxblH/LI3wnNcNase5V
IzEb/UmFQDk7ih2xDHZZXrd0rgeLAtOK+GFzq2PuH8gAO6DULMf73YATARBqCUPU
/ScZF+L5rOXQSSRc5piX/bsCgYBKAXsJ3p/ylpu/zWf8SIYNBGBwJDQzOxUgBZxg
aEM7pbFPGOrKpvsUobWZEvgtYf2Jb0JRRkOBXnvAn9+ztLHYo6MSdEZIiDsHf6iQ
HnVsae5qGwmAGy6XLngscQgRUWN5VMx1Q2PJagGLk4XTkoawgrFMKP6DOZB1niI0
Y/O3CwKBgGpI7827MC4nBDREmFuwWH3HiwNQBFtCSpm2REZMTY9C8ogYvpDdqAZI
/j+3QXne4j5EHjhSUuuXP8OtlcQzaigClMW94/RcOVky1LrKfaH+RNCZhzRNpcJz
ekHcuDC90jqdZ8EWyJ6V24xwmpoyBr4v8VIme7tTF9HNQhcxzyGh
-----END RSA PRIVATE KEY-----
Certificate:
    Data:
        Version: 3 (0x2)
        Serial Number: 2 (0x2)
        Signature Algorithm: sha256WithRSAEncryption
        Issuer: C=US, CN=Test Intermediate CA
        Validity
            Not Before: Aug 14 14:28:15 2023 GMT
            Not After : Aug 13 14:28:15 2024 GMT
        Subject: C=US, CN=dmic.com
        Subject Public Key Info:
            Public Key Algorithm: rsaEncryption
                RSA Public-Key: (2048 bit)
                Modulus:
                    00:cc:2a:75:21:83:26:60:d5:63:1c:df:f1:f1:7b:
                    8c:4d:48:09:ca:e9:86:57:19:0b:d5:a3:f2:c2:d3:
                    c8:d6:b0:39:1e:8f:a7:29:0d:bd:59:e6:68:57:c4:
                    f4:15:0b:5c:56:30:ee:d7:08:99:61:f5:c9:67:f0:
                    b9:6a:ad:4c:10:9a:5e:e7:31:90:52:d9:43:0e:b7:
                    e9:cf:93:02:78:bd:89:6d:78:61:31:53:55:9d:c0:
                    ed:61:17:ef:3e:33:4c:4d:6a:ad:73:b3:d9:1b:d4:
                    96:5a:26:be:39:51:4c:db:28:ee:b2:33:ad:15:f8:
                    5c:ee:2a:36:bc:a4:70:06:47:9c:fb:b5:86:79:3c:
                    85:6d:b7:46:25:a7:a6:14:26:40:cc:fa:cc:e6:eb:
                    a3:8b:b5:b4:17:dd:4e:d9:45:f8:c2:67:ff:a1:90:
                    b4:84:0f:90:b9:d0:ef:82:5e:59:e2:0a:3a:f2:49:
                    bd:86:aa:8f:4b:83:85:69:cf:75:e6:b9:aa:06:39:
                    00:a1:1c:60:ba:99:3a:c8:95:7a:8d:72:72:5d:42:
                    1e:6c:86:e9:79:1c:af:75:4e:80:16:91:c1:f5:86:
                    c1:a3:84:39:8f:1c:25:1d:f0:58:7d:96:66:50:b8:
                    25:ab:c1:cc:d0:12:2e:34:3a:0a:83:b3:2b:cb:30:
                    04:29
                Exponent: 65537 (0x10001)
        X509v3 extensions:
            X509v3 Subject Alternative Name: 
                DNS:dmic.com, DNS:*.dmic.com
    Signature Algorithm: sha256WithRSAEncryption
         79:c6:89:70:e9:16:9c:f0:10:26:5e:74:8f:49:eb:a6:2e:f9:
         34:ce:66:04:a5:e7:bc:55:21:1b:91:da:7b:b2:77:fd:97:60:
         ae:64:7c:4a:98:73:8a:18:29:c8:af:5e:cc:c0:5d:89:0c:37:
         4e:26:75:f7:a3:e3:bd:55:bb:ab:91:f5:a2:92:c4:4d:0d:5a:
         5f:57:91:05:fd:d6:03:6a:bc:ae:98:8c:96:a7:ed:75:8e:48:
         f3:06:6c:7d:e1:ed:40:c1:5b:32:fa:0f:77:de:2b:7a:d4:9e:
         fc:0a:46:3a:03:43:20:10:9f:be:e1:cc:02:c3:88:40:d9:d9:
         37:aa:d4:ac:58:1f:ee:3e:92:83:6b:40:39:33:77:e0:e8:40:
         57:4c:0a:61:4e:ee:40:3f:9e:45:4f:66:95:42:2c:7d:a0:63:
         99:e1:79:e4:99:16:85:39:02:a0:75:22:af:4e:8d:ab:c4:b2:
         10:be:8e:bf:48:1e:6a:26:bd:6a:0f:a9:ab:31:c1:27:92:4c:
         f7:9a:35:4d:3a:17:77:67:6b:a0:7f:be:60:2d:0b:ed:f0:e2:
         ab:91:b9:94:68:7d:33:5c:c7:90:0b:d5:9b:6a:e6:b2:a3:46:
         4e:2a:67:79:f7:00:15:bb:c6:28:dc:e9:7d:a2:fb:19:03:1c:
         fc:5f:fa:02
-----BEGIN CERTIFICATE-----
MIIC6jCCAdKgAwIBAgIBAjANBgkqhkiG9w0BAQsFADAsMQswCQYDVQQGEwJVUzEd
MBsGA1UEAwwUVGVzdCBJbnRlcm1lZGlhdGUgQ0EwHhcNMjMwODE0MTQyODE1WhcN
MjQwODEzMTQyODE1WjAgMQswCQYDVQQGEwJVUzERMA8GA1UEAwwIZG1pYy5jb20w
ggEiMA0GCSqGSIb3DQEBAQUAA4IBDwAwggEKAoIBAQDMKnUhgyZg1WMc3/Hxe4xN
SAnK6YZXGQvVo/LC08jWsDkej6cpDb1Z5mhXxPQVC1xWMO7XCJlh9cln8LlqrUwQ
ml7nMZBS2UMOt+nPkwJ4vYlteGExU1WdwO1hF+8+M0xNaq1zs9kb1JZaJr45UUzb
KO6yM60V+FzuKja8pHAGR5z7tYZ5PIVtt0Ylp6YUJkDM+szm66OLtbQX3U7ZRfjC
Z/+hkLSED5C50O+CXlniCjrySb2Gqo9Lg4Vpz3XmuaoGOQChHGC6mTrIlXqNcnJd
Qh5shul5HK91ToAWkcH1hsGjhDmPHCUd8Fh9lmZQuCWrwczQEi40OgqDsyvLMAQp
AgMBAAGjIzAhMB8GA1UdEQQYMBaCCGRtaWMuY29tggoqLmRtaWMuY29tMA0GCSqG
SIb3DQEBCwUAA4IBAQB5xolw6Rac8BAmXnSPSeumLvk0zmYEpee8VSEbkdp7snf9
l2CuZHxKmHOKGCnIr17MwF2JDDdOJnX3o+O9VburkfWiksRNDVpfV5EF/dYDaryu
mIyWp+11jkjzBmx94e1AwVsy+g933it61J78CkY6A0MgEJ++4cwCw4hA2dk3qtSs
WB/uPpKDa0A5M3fg6EBXTAphTu5AP55FT2aVQix9oGOZ4XnkmRaFOQKgdSKvTo2r
xLIQvo6/SB5qJr1qD6mrMcEnkkz3mjVNOhd3Z2ugf75gLQvt8OKrkbmUaH0zXMeQ
C9Wbauayo0ZOKmd59wAVu8Yo3Ol9ovsZAxz8X/oC
-----END CERTIFICATE-----
Certificate:
    Data:
        Version: 3 (0x2)
        Serial Number: 3 (0x3)
        Signature Algorithm: sha256WithRSAEncryption
        Issuer: C=US, CN=Test Root CA
        Validity
            Not Before: Aug 14 14:26:26 2023 GMT
            Not After : Aug 13 14:26:26 2025 GMT
        Subject: C=US, CN=Test Intermediate CA
        Subject Public Key Info:
            Public Key Algorithm: rsaEncryption
                RSA Public-Key: (2048 bit)
                Modulus:
                    00:c4:16:4f:8f:07:35:dc:78:2b:52:e5:68:62:a5:
                    18:a6:67:d1:80:d8:d9:3d:a8:c6:36:36:63:57:27:
                    b1:a2:fe:63:8d:69:88:09:fe:92:e0:50:78:63:30:
                    a0:53:b3:0e:69:cb:20:60:d0:39:1c:10:b7:47:dd:
                    e5:6a:90:c1:13:65:25:b6:cb:0f:c3:6d:66:f1:ff:
                    5e:9b:d8:d3:3c:04:1b:ea:f4:d3:0b:94:87:86:3e:
                    c2:a4:c8:48:2e:47:6b:67:bb:f0:48:64:96:66:66:
                    e7:49:8a:8c:c3:b2:f0:1d:76:a5:e2:13:70:a4:0c:
                    fb:21:32:ca:36:af:75:2e:a4:31:7e:54:6c:a1:28:
                    99:59:50:ba:96:ea:bf:b1:86:68:7f:65:ae:1d:21:
                    15:82:4c:32:53:86:2f:b5:e5:2e:97:aa:38:19:af:
                    ae:f1:b4:f9:03:f1:84:10:d8:e7:8e:5f:92:ae:2f:
                    e0:ba:25:34:af:f9:2f:be:e2:45:fc:4e:bb:fb:70:
                    16:1f:bb:de:a1:b5:89:6a:5f:6d:3e:40:bc:31:34:
                    3b:72:e1:5f:3e:b5:bf:98:f5:3a:57:20:a2:f5:41:
                    ed:7a:23:37:4e:12:4f:41:07:ee:01:17:c7:70:97:
                    15:98:55:0c:fe:3b:09:0b:a9:ba:4d:81:82:ce:57:
                    a1:9d
                Exponent: 65537 (0x10001)
        X509v3 extensions:
            X509v3 Basic Constraints: critical
                CA:TRUE
            X509v3 Key Usage: critical
                Certificate Sign
    Signature Algorithm: sha256WithRSAEncryption
         95:aa:a8:20:4d:e6:25:ad:99:2f:92:d4:91:9a:41:c9:f9:13:
         38:b1:f1:6b:18:ae:30:f8:54:be:a6:d9:2f:47:b4:61:c6:b3:
         a5:59:9b:92:35:aa:88:37:c1:cf:8f:9b:f5:b5:f5:94:53:94:
         d2:1d:07:14:7b:d8:d7:f0:18:5b:e2:77:78:1d:f8:de:fa:57:
         da:6e:39:f8:7d:c3:e5:d7:10:3d:a3:90:9e:4b:e5:d1:a1:f2:
         e8:3b:a2:30:46:b1:06:c7:e6:c7:17:60:03:ce:05:67:5c:50:
         f7:49:20:a0:60:43:ca:98:d1:a2:67:11:62:87:87:35:30:db:
         94:f1:8a:b0:10:4f:07:cb:b9:6d:76:b4:b5:b1:92:5a:7e:20:
         63:37:6b:61:22:7f:cc:03:02:15:3e:cf:17:4a:d5:ac:11:e3:
         1e:2e:f5:70:32:03:ce:28:ca:84:5e:ef:97:40:5c:9d:04:7e:
         d2:dc:da:d4:8d:8e:8c:13:b3:dd:81:92:cf:e6:99:5e:fe:6d:
         d5:45:44:8a:89:86:96:d4:d9:dc:37:47:fa:1e:de:50:a2:17:
         b6:11:c6:ae:18:1d:d3:13:f6:90:83:82:85:c3:b4:84:66:da:
         46:ca:6c:12:ba:a8:d8:58:da:99:35:1e:7a:b7:b9:8e:18:ae:
         2e:ad:92:80
-----BEGIN CERTIFICATE-----
MIIC7jCCAdagAwIBAgIBAzANBgkqhkiG9w0BAQsFADAkMQswCQYDVQQGEwJVUzEV
MBMGA1UEAwwMVGVzdCBSb290IENBMB4XDTIzMDgxNDE0MjYyNloXDTI1MDgxMzE0
MjYyNlowLDELMAkGA1UEBhMCVVMxHTAbBgNVBAMMFFRlc3QgSW50ZXJtZWRpYXRl
IENBMIIBIjANBgkqhkiG9w0BAQEFAAOCAQ8AMIIBCgKCAQEAxBZPjwc13HgrUuVo
YqUYpmfRgNjZPajGNjZjVyexov5jjWmICf6S4FB4YzCgU7MOacsgYNA5HBC3R93l
apDBE2UltssPw21m8f9em9jTPAQb6vTTC5SHhj7CpMhILkdrZ7vwSGSWZmbnSYqM
w7LwHXal4hNwpAz7ITLKNq91LqQxflRsoSiZWVC6luq/sYZof2WuHSEVgkwyU4Yv
teUul6o4Ga+u8bT5A/GEENjnjl+Sri/guiU0r/kvvuJF/E67+3AWH7veobWJal9t
PkC8MTQ7cuFfPrW/mPU6VyCi9UHteiM3ThJPQQfuARfHcJcVmFUM/jsJC6m6TYGC
zlehnQIDAQABoyMwITAPBgNVHRMBAf8EBTADAQH/MA4GA1UdDwEB/wQEAwICBDAN
BgkqhkiG9w0BAQsFAAOCAQEAlaqoIE3mJa2ZL5LUkZpByfkTOLHxaxiuMPhUvqbZ
L0e0YcazpVmbkjWqiDfBz4+b9bX1lFOU0h0HFHvY1/AYW+J3eB343vpX2m45+H3D
5dcQPaOQnkvl0aHy6DuiMEaxBsfmxxdgA84FZ1xQ90kgoGBDypjRomcRYoeHNTDb
lPGKsBBPB8u5bXa0tbGSWn4gYzdrYSJ/zAMCFT7PF0rVrBHjHi71cDIDzijKhF7v
l0BcnQR+0tza1I2OjBOz3YGSz+aZXv5t1UVEiomGltTZ3DdH+h7eUKIXthHGrhgd
0xP2kIOChcO0hGbaRspsErqo2FjamTUeere5jhiuLq2SgA==
-----END CERTIFICATE-----
Certificate:
    Data:
        Version: 3 (0x2)
        Serial Number: 2 (0x2)
        Signature Algorithm: sha256WithRSAEncryption
        Issuer: C=US, CN=Test Root CA
        Validity
            Not Before: Aug 14 14:24:57 2023 GMT
            Not After : Aug 13 14:24:57 2026 GMT
        Subject: C=US, CN=Test Root CA
        Subject Public Key Info:
            Public Key Algorithm: rsaEncryption
                RSA Public-Key: (2048 bit)
                Modulus:
                    00:b5:55:ea:9a:85:e8:d7:75:d8:2a:12:84:a1:9c:
                    6a:2d:3b:f7:76:ad:28:c6:6c:ec:1c:10:fe:fe:7c:
                    94:cb:2e:b4:c0:12:b3:72:21:05:87:4f:c2:1c:02:
                    ca:09:55:04:c9:37:e7:93:db:57:52:69:ab:cc:ee:
                    5c:ec:e7:9d:8c:9b:cf:d1:82:e1:2c:63:d6:12:ec:
                    ab:73:8d:ba:2e:4d:52:66:0a:eb:3e:32:31:27:d3:
                    6a:78:53:ac:59:9c:e7:fa:69:5c:bd:b2:57:81:71:
                    e2:f3:51:57:b8:bd:2b:6a:36:1f:e6:72:a1:93:be:
                    a6:9f:d6:08:f6:2e:ec:20:68:0b:09:88:c3:09:9a:
                    09:7a:53:21:7d:04:11:31:dc:98:27:b3:06:eb:90:
                    f4:35:c0:23:02:ee:c5:b6:04:a8:6f:f2:d1:51:99:
                    f0:79:a6:5b:aa:89:84:a4:77:c1:f7:61:37:b1:c1:
                    51:ef:fd:91:4f:4d:f2:8e:ed:60:e8:f8:82:ba:1f:
                    30:ab:62:c5:2d:d6:22:3f:dd:72:ae:33:80:07:80:
                    9e:98:80:f0:ee:3e:9e:57:78:44:0a:08:68:70:4b:
                    7a:3f:da:55:9f:ff:9f:a9:d0:5b:79:2a:b1:5b:5a:
                    9e:56:c2:23:2c:dd:2e:bc:fe:6f:3c:86:29:fe:0d:
                    21:0b
                Exponent: 65537 (0x10001)
        X509v3 extensions:
            X509v3 Basic Constraints: critical
                CA:TRUE
            X509v3 Key Usage: critical
                Certificate Sign
    Signature Algorithm: sha256WithRSAEncryption
         23:3a:3a:94:01:7f:6c:ab:b8:51:e3:7a:d6:1f:3e:0c:1d:00:
         45:30:24:10:06:37:2c:a1:30:5e:1b:81:10:ad:f9:36:27:01:
         7b:fd:97:c8:7c:89:bb:67:84:70:45:e9:e8:0f:b6:a5:a2:ba:
         79:06:4c:47:27:58:75:bd:b0:2d:98:2c:a6:9a:a4:6e:59:45:
         ae:51:aa:7d:f1:30:a8:fa:55:f1:f0:b0:ed:f6:f4:a0:b9:d6:
         08:13:27:23:9c:fb:91:1d:d9:2e:b6:84:83:b5:bb:f7:47:74:
         64:78:d7:87:9b:03:ef:4d:ea:fb:ec:95:b7:fe:c6:7d:16:2d:
         20:42:1a:f5:29:a1:c9:76:2a:f2:ac:42:7d:37:38:ca:f2:8e:
         e1:6d:d0:97:89:5d:1c:87:58:f4:8c:b7:f1:16:66:54:d4:27:
         7c:31:5f:4c:65:b6:40:2c:eb:36:ec:f0:f4:c9:79:12:5a:88:
         fc:b4:eb:b3:00:fb:2c:05:17:c8:43:6a:03:ab:0c:cb:70:dc:
         26:fa:eb:c7:ab:0f:c9:05:f7:45:ef:36:df:bc:22:92:45:e7:
         e1:c3:71:b9:f4:34:46:03:1d:68:db:e4:f2:8f:f4:b7:b4:24:
         18:b3:9c:b3:95:66:f1:99:c5:d1:a4:37:bd:13:b6:be:e1:0c:
         03:a9:0e:0c
-----BEGIN CERTIFICATE-----
MIIC5jCCAc6gAwIBAgIBAjANBgkqhkiG9w0BAQsFADAkMQswCQYDVQQGEwJVUzEV
MBMGA1UEAwwMVGVzdCBSb290IENBMB4XDTIzMDgxNDE0MjQ1N1oXDTI2MDgxMzE0
MjQ1N1owJDELMAkGA1UEBhMCVVMxFTATBgNVBAMMDFRlc3QgUm9vdCBDQTCCASIw
DQYJKoZIhvcNAQEBBQADggEPADCCAQoCggEBALVV6pqF6Nd12CoShKGcai0793at
KMZs7BwQ/v58lMsutMASs3IhBYdPwhwCyglVBMk355PbV1Jpq8zuXOznnYybz9GC
4Sxj1hLsq3ONui5NUmYK6z4yMSfTanhTrFmc5/ppXL2yV4Fx4vNRV7i9K2o2H+Zy
oZO+pp/WCPYu7CBoCwmIwwmaCXpTIX0EETHcmCezBuuQ9DXAIwLuxbYEqG/y0VGZ
8HmmW6qJhKR3wfdhN7HBUe/9kU9N8o7tYOj4grofMKtixS3WIj/dcq4zgAeAnpiA
8O4+nld4RAoIaHBLej/aVZ//n6nQW3kqsVtanlbCIyzdLrz+bzyGKf4NIQsCAwEA
AaMjMCEwDwYDVR0TAQH/BAUwAwEB/zAOBgNVHQ8BAf8EBAMCAgQwDQYJKoZIhvcN
AQELBQADggEBACM6OpQBf2yruFHjetYfPgwdAEUwJBAGNyyhMF4bgRCt+TYnAXv9
l8h8ibtnhHBF6egPtqWiunkGTEcnWHW9sC2YLKaapG5ZRa5Rqn3xMKj6VfHwsO32
9KC51ggTJyOc+5Ed2S62hIO1u/dHdGR414ebA+9N6vvslbf+xn0WLSBCGvUpocl2
KvKsQn03OMryjuFt0JeJXRyHWPSMt/EWZlTUJ3wxX0xltkAs6zbs8PTJeRJaiPy0
67MA+ywFF8hDagOrDMtw3Cb668erD8kF90XvNt+8IpJF5+HDcbn0NEYDHWjb5PKP
9Le0JBiznLOVZvGZxdGkN70Ttr7hDAOpDgw=
-----END CERTIFICATE-----
