Certificate:
    Data:
        Version: 3 (0x2)
        Serial Number: 1 (0x1)
    Signature Algorithm: sha256WithRSAEncryption
        Issuer: C=US, CN=Test Root CA
        Validity
            Not Before: Jun  1 10:12:32 2023 GMT
            Not After : May 31 10:12:32 2025 GMT
        Subject: C=US, CN=Test Intermediate CA
        Subject Public Key Info:
            Public Key Algorithm: rsaEncryption
                Public-Key: (2048 bit)
                Modulus:
                    00:c8:e0:b2:a8:97:d5:32:af:03:7d:0a:b3:be:6f:
                    4b:82:7b:61:af:0a:0c:8f:83:a2:f0:a1:80:b2:38:
                    bb:3e:67:71:1e:10:9d:2c:6e:8d:b9:a9:88:5a:05:
                    14:c4:4c:db:99:1a:82:79:0c:8c:bf:f2:bd:98:f4:
                    d2:d4:16:26:0a:43:b8:9c:ee:77:6f:cf:75:58:cb:
                    80:21:dd:ba:8b:7d:23:39:c4:3c:58:ae:63:1f:5d:
                    df:c0:f0:a4:5f:93:38:07:8b:d2:6e:5b:a0:3f:83:
                    5d:12:86:89:d2:18:69:9d:8b:83:05:d1:9b:ab:c5:
                    56:97:e3:9c:0a:18:fb:1c:ee:22:f4:47:2e:7c:9e:
                    1f:45:88:ca:c2:96:ae:46:59:3e:56:2c:d1:21:c8:
                    24:2c:ab:ee:95:4d:bf:84:4d:8c:6d:97:bb:ba:a6:
                    c5:e0:79:cb:0b:76:05:58:71:e6:ab:2d:48:13:bb:
                    e8:29:94:f4:97:50:83:db:a1:ad:5c:93:1e:4a:d4:
                    a1:c0:42:80:ba:89:06:27:6b:11:cd:25:52:ad:e0:
                    63:02:3e:11:3e:e0:e0:e6:d5:da:96:70:2a:0d:51:
                    60:96:cf:8e:07:3c:b4:4f:c2:4c:11:d1:a3:83:2f:
                    68:aa:3f:0d:28:f1:49:4d:7c:c4:32:72:49:ef:d0:
                    dd:29
                Exponent: 65537 (0x10001)
        X509v3 extensions:
            X509v3 Basic Constraints: critical
                CA:TRUE
            X509v3 Key Usage: critical
                Certificate Sign
    Signature Algorithm: sha256WithRSAEncryption
         5c:ed:2b:7a:5f:10:19:e6:9c:4b:06:16:37:29:91:8a:45:a3:
         b3:1d:b4:6b:11:a1:c5:8a:e2:3b:be:67:9a:d2:e1:2e:c4:c4:
         92:14:55:f7:1e:2c:8b:0c:a2:0d:cb:cd:a8:39:ec:f5:84:fb:
         3a:b7:47:5f:ce:9c:aa:96:79:81:94:24:76:c8:e3:cd:0a:20:
         5c:bd:18:b7:8e:c5:5f:49:e0:73:b1:7c:b3:24:dd:bb:40:1b:
         16:6d:f1:91:0a:1c:18:af:23:5a:f7:56:d9:c9:0d:cc:d4:fe:
         22:6c:91:92:d9:58:64:b9:4b:c0:09:80:08:6b:84:d8:06:4c:
         18:b9:d0:3b:e9:5c:fe:01:3a:68:d4:6f:5e:a3:7d:b7:e4:a6:
         30:2b:d0:cb:16:0c:ad:c6:98:5d:ce:4c:40:0b:85:88:9e:9f:
         61:2b:61:c4:2b:8a:fa:96:6d:77:f1:d2:b8:e7:fd:8d:49:71:
         40:16:6c:b1:2d:57:73:0c:47:4d:b2:24:8e:62:25:f5:97:d4:
         45:b3:e9:e9:6d:7e:27:06:2b:32:98:59:70:2a:e0:1d:86:65:
         91:60:a6:82:de:d0:53:5c:4e:8c:84:5e:93:f4:90:e4:2f:0e:
         81:c2:5e:f7:07:3e:83:7c:72:fe:06:d4:2a:d4:81:76:1c:59:
         7e:55:9a:2c
-----BEGIN CERTIFICATE-----
MIIC7jCCAdagAwIBAgIBATANBgkqhkiG9w0BAQsFADAkMQswCQYDVQQGEwJVUzEV
MBMGA1UEAwwMVGVzdCBSb290IENBMB4XDTIzMDYwMTEwMTIzMloXDTI1MDUzMTEw
MTIzMlowLDELMAkGA1UEBhMCVVMxHTAbBgNVBAMMFFRlc3QgSW50ZXJtZWRpYXRl
IENBMIIBIjANBgkqhkiG9w0BAQEFAAOCAQ8AMIIBCgKCAQEAyOCyqJfVMq8DfQqz
vm9LgnthrwoMj4Oi8KGAsji7PmdxHhCdLG6NuamIWgUUxEzbmRqCeQyMv/K9mPTS
1BYmCkO4nO53b891WMuAId26i30jOcQ8WK5jH13fwPCkX5M4B4vSblugP4NdEoaJ
0hhpnYuDBdGbq8VWl+OcChj7HO4i9EcufJ4fRYjKwpauRlk+VizRIcgkLKvulU2/
hE2MbZe7uqbF4HnLC3YFWHHmqy1IE7voKZT0l1CD26GtXJMeStShwEKAuokGJ2sR
zSVSreBjAj4RPuDg5tXalnAqDVFgls+OBzy0T8JMEdGjgy9oqj8NKPFJTXzEMnJJ
79DdKQIDAQABoyMwITAPBgNVHRMBAf8EBTADAQH/MA4GA1UdDwEB/wQEAwICBDAN
BgkqhkiG9w0BAQsFAAOCAQEAXO0rel8QGeacSwYWNymRikWjsx20axGhxYriO75n
mtLhLsTEkhRV9x4siwyiDcvNqDns9YT7OrdHX86cqpZ5gZQkdsjjzQogXL0Yt47F
X0ngc7F8syTdu0AbFm3xkQocGK8jWvdW2ckNzNT+ImyRktlYZLlLwAmACGuE2AZM
GLnQO+lc/gE6aNRvXqN9t+SmMCvQyxYMrcaYXc5MQAuFiJ6fYSthxCuK+pZtd/HS
uOf9jUlxQBZssS1XcwxHTbIkjmIl9ZfURbPp6W1+JwYrMphZcCrgHYZlkWCmgt7Q
U1xOjIRek/SQ5C8OgcJe9wc+g3xy/gbUKtSBdhxZflWaLA==
-----END CERTIFICATE-----
