Certificate:
    Data:
        Version: 1 (0x0)
        Serial Number: 1 (0x1)
    Signature Algorithm: sha256WithRSAEncryption
        Issuer: C=US, CN=Test Intermediate CA
        Validity
            Not Before: Jun  1 10:43:12 2023 GMT
            Not After : May 31 10:43:12 2024 GMT
        Subject: C=US, CN=dmic.com
        Subject Public Key Info:
            Public Key Algorithm: rsaEncryption
                Public-Key: (2048 bit)
                Modulus:
                    00:b0:40:d6:c2:38:de:07:a8:eb:81:01:9c:89:4e:
                    fa:2c:c3:06:67:78:69:66:23:7b:72:3d:7f:8c:d6:
                    9d:60:d2:aa:1f:77:1d:35:67:25:e5:24:10:f5:64:
                    f6:01:41:7d:3c:a0:22:88:a1:06:30:fc:39:01:cb:
                    01:00:ab:41:7b:12:86:be:84:c6:e4:d3:9e:b0:3f:
                    65:62:29:04:da:ce:a0:88:73:71:54:96:73:6a:34:
                    a4:e7:a2:09:98:56:7e:e5:1b:9e:9f:20:e3:4f:58:
                    89:6e:e0:4e:88:fb:13:23:7c:94:39:d9:53:9a:ba:
                    31:aa:70:d1:2c:34:b3:8b:6c:36:c4:3d:da:43:91:
                    2e:18:55:92:79:04:64:c5:34:17:ee:bf:a6:31:3b:
                    0f:c6:ba:f3:e5:79:2c:ac:a9:18:61:1f:73:2a:8e:
                    c2:9a:20:3d:c5:88:c5:03:62:4e:63:12:ca:51:69:
                    2a:ac:1e:47:0d:98:1f:b8:0b:6d:72:02:93:45:35:
                    0a:bd:b0:ab:31:40:7d:60:13:62:d8:5f:ed:4c:4c:
                    26:7d:67:91:00:20:7e:b1:15:16:e0:07:fe:dc:5a:
                    85:0a:9c:bc:86:69:80:dc:60:83:90:14:23:ff:9e:
                    a0:2f:17:70:0a:12:c5:67:83:15:0a:7c:db:85:05:
                    bc:07
                Exponent: 65537 (0x10001)
    Signature Algorithm: sha256WithRSAEncryption
         6a:c6:99:35:69:d4:ba:7b:bd:a8:da:e9:67:d9:8c:0e:bd:be:
         e4:b5:57:d8:c8:c4:71:f2:ef:39:ec:d0:51:0a:e8:1c:0f:63:
         cb:37:44:a7:f9:3b:65:90:f8:94:15:49:fb:79:d0:c0:3b:48:
         02:cf:46:f7:e3:3e:ed:30:11:62:4e:cf:54:92:37:93:94:11:
         4b:6a:fb:3b:a1:d7:cc:e2:54:9a:f3:0e:1b:93:4a:d7:75:34:
         fc:d1:bf:eb:4f:99:e8:f3:76:3a:8f:0e:81:a8:c9:45:04:85:
         26:bc:c0:5d:15:e9:14:41:c1:5c:cb:43:fc:e5:e3:4c:8f:52:
         e2:03:06:96:6f:aa:ac:47:ff:d2:29:97:79:dd:5e:60:de:d9:
         7d:98:61:d2:a8:77:d0:bd:18:84:bd:38:4a:98:15:7c:9d:c3:
         4b:f0:4c:b0:e5:ce:7b:f1:d2:97:f0:00:8a:d7:e9:4d:bf:d4:
         1b:b2:53:bf:4b:5b:bd:0d:d9:98:26:a9:09:cb:94:14:cc:15:
         a7:51:ae:47:5a:0a:86:b8:ce:b4:dd:63:fd:5e:82:87:85:bc:
         2b:f8:0b:19:ad:c7:8d:4b:a2:8a:87:0d:c8:06:37:60:7b:b1:
         b3:8b:fd:83:5b:23:d9:e1:c7:d7:ec:7b:ac:04:7e:24:82:dc:
         26:17:3d:87
-----BEGIN CERTIFICATE-----
MIICwDCCAagCAQEwDQYJKoZIhvcNAQELBQAwLDELMAkGA1UEBhMCVVMxHTAbBgNV
BAMMFFRlc3QgSW50ZXJtZWRpYXRlIENBMB4XDTIzMDYwMTEwNDMxMloXDTI0MDUz
MTEwNDMxMlowIDELMAkGA1UEBhMCVVMxETAPBgNVBAMMCGRtaWMuY29tMIIBIjAN
BgkqhkiG9w0BAQEFAAOCAQ8AMIIBCgKCAQEAsEDWwjjeB6jrgQGciU76LMMGZ3hp
ZiN7cj1/jNadYNKqH3cdNWcl5SQQ9WT2AUF9PKAiiKEGMPw5AcsBAKtBexKGvoTG
5NOesD9lYikE2s6giHNxVJZzajSk56IJmFZ+5RuenyDjT1iJbuBOiPsTI3yUOdlT
mroxqnDRLDSzi2w2xD3aQ5EuGFWSeQRkxTQX7r+mMTsPxrrz5XksrKkYYR9zKo7C
miA9xYjFA2JOYxLKUWkqrB5HDZgfuAttcgKTRTUKvbCrMUB9YBNi2F/tTEwmfWeR
ACB+sRUW4Af+3FqFCpy8hmmA3GCDkBQj/56gLxdwChLFZ4MVCnzbhQW8BwIDAQAB
MA0GCSqGSIb3DQEBCwUAA4IBAQBqxpk1adS6e72o2uln2YwOvb7ktVfYyMRx8u85
7NBRCugcD2PLN0Sn+TtlkPiUFUn7edDAO0gCz0b34z7tMBFiTs9UkjeTlBFLavs7
odfM4lSa8w4bk0rXdTT80b/rT5no83Y6jw6BqMlFBIUmvMBdFekUQcFcy0P85eNM
j1LiAwaWb6qsR//SKZd53V5g3tl9mGHSqHfQvRiEvThKmBV8ncNL8Eyw5c578dKX
8ACK1+lNv9QbslO/S1u9DdmYJqkJy5QUzBWnUa5HWgqGuM603WP9XoKHhbwr+AsZ
rceNS6KKhw3IBjdge7Gzi/2DWyPZ4cfX7HusBH4kgtwmFz2H
-----END CERTIFICATE-----
