Certificate:
    Data:
        Version: 3 (0x2)
        Serial Number: 0 (0x0)
    Signature Algorithm: sha256WithRSAEncryption
        Issuer: C=US, CN=Test Root CA
        Validity
            Not Before: Jun  1 10:11:14 2023 GMT
            Not After : May 31 10:11:14 2026 GMT
        Subject: C=US, CN=Test Root CA
        Subject Public Key Info:
            Public Key Algorithm: rsaEncryption
                Public-Key: (2048 bit)
                Modulus:
                    00:db:7d:de:b6:a5:b7:0b:13:6d:15:cb:ba:44:45:
                    1b:b3:1d:05:4f:bc:07:1b:b5:ed:58:1b:b2:88:56:
                    5f:1f:07:c5:0f:67:2b:1f:16:00:1a:51:0d:97:24:
                    f3:19:96:6d:e0:19:07:69:3b:44:e4:c2:eb:6d:c3:
                    89:60:10:9c:84:a3:62:71:0f:74:07:7c:de:3b:9e:
                    f5:5d:35:b5:ed:9f:09:64:8a:42:31:4a:d2:1a:93:
                    1a:1a:c7:65:89:3e:0e:96:3c:17:8f:30:ca:d0:e2:
                    b9:30:01:6c:22:3e:a8:fd:25:69:06:1d:43:2c:3e:
                    39:eb:1f:82:a3:c6:08:bb:2f:fd:b8:31:4f:b3:a4:
                    c8:3c:74:28:df:cb:87:8f:17:f3:90:85:d5:76:96:
                    e8:3e:27:25:25:10:93:8c:82:19:ad:2f:76:99:f6:
                    e0:84:69:08:ad:9e:e2:e7:91:1f:ac:1a:5c:2f:e3:
                    38:f9:90:25:05:ee:74:5d:63:93:38:9f:a2:80:21:
                    e1:9a:76:10:29:d5:fb:86:6e:e6:26:95:46:be:91:
                    ad:62:67:92:6f:f2:ff:f3:7d:fe:81:51:bc:db:8b:
                    ae:ac:98:f4:e3:01:0b:fe:38:a8:0f:9f:e9:ae:b1:
                    84:55:2d:1c:6f:21:6e:dc:cf:64:92:75:db:82:6e:
                    6d:4b
                Exponent: 65537 (0x10001)
        X509v3 extensions:
            X509v3 Basic Constraints: critical
                CA:TRUE
            X509v3 Key Usage: critical
                Certificate Sign
    Signature Algorithm: sha256WithRSAEncryption
         8b:aa:5f:51:31:ad:1c:f5:a1:a2:86:38:f2:41:41:7a:3d:85:
         59:48:55:ad:dc:ff:e0:70:ae:af:2b:70:12:4d:8f:d4:ba:ae:
         12:af:d2:52:74:99:ce:19:24:28:42:fc:db:9f:4c:e2:27:fb:
         11:f1:ad:7e:8e:c0:32:4f:95:b2:4e:29:f9:69:87:fa:3f:b5:
         66:f3:1c:3e:fb:2d:c1:13:2e:db:e5:c5:4c:58:a9:44:80:72:
         04:b2:94:a9:76:b6:96:43:0e:09:bf:86:93:ec:fd:b1:0e:f3:
         32:0a:ed:59:1b:67:6b:3b:40:c1:b9:3c:79:b4:6f:bc:d7:eb:
         5e:b8:44:9a:4c:f4:b1:3c:c4:0a:30:60:10:c1:36:3d:55:3a:
         1c:d9:10:de:0d:91:53:3b:d8:a3:ec:e9:cb:e7:e0:43:5c:de:
         82:82:cd:65:7f:2f:e0:c0:e5:cb:ae:59:ec:de:c7:4a:55:81:
         58:56:30:9b:fc:2d:7b:04:bd:b1:2e:68:32:f0:82:07:3d:45:
         ae:66:aa:70:50:52:18:cf:76:d1:09:24:77:4b:86:1e:ea:a3:
         c9:b5:59:63:bc:6d:d7:8d:ed:2d:f3:d5:6b:64:a7:fb:e1:c2:
         e7:6e:ca:62:cb:03:88:a6:ba:3a:f6:6e:6e:ef:c3:89:b0:3d:
         5e:1f:c0:6c
-----BEGIN CERTIFICATE-----
MIIC5jCCAc6gAwIBAgIBADANBgkqhkiG9w0BAQsFADAkMQswCQYDVQQGEwJVUzEV
MBMGA1UEAwwMVGVzdCBSb290IENBMB4XDTIzMDYwMTEwMTExNFoXDTI2MDUzMTEw
MTExNFowJDELMAkGA1UEBhMCVVMxFTATBgNVBAMMDFRlc3QgUm9vdCBDQTCCASIw
DQYJKoZIhvcNAQEBBQADggEPADCCAQoCggEBANt93raltwsTbRXLukRFG7MdBU+8
Bxu17VgbsohWXx8HxQ9nKx8WABpRDZck8xmWbeAZB2k7ROTC623DiWAQnISjYnEP
dAd83jue9V01te2fCWSKQjFK0hqTGhrHZYk+DpY8F48wytDiuTABbCI+qP0laQYd
Qyw+OesfgqPGCLsv/bgxT7OkyDx0KN/Lh48X85CF1XaW6D4nJSUQk4yCGa0vdpn2
4IRpCK2e4ueRH6waXC/jOPmQJQXudF1jkzifooAh4Zp2ECnV+4Zu5iaVRr6RrWJn
km/y//N9/oFRvNuLrqyY9OMBC/44qA+f6a6xhFUtHG8hbtzPZJJ124JubUsCAwEA
AaMjMCEwDwYDVR0TAQH/BAUwAwEB/zAOBgNVHQ8BAf8EBAMCAgQwDQYJKoZIhvcN
AQELBQADggEBAIuqX1ExrRz1oaKGOPJBQXo9hVlIVa3c/+Bwrq8rcBJNj9S6rhKv
0lJ0mc4ZJChC/NufTOIn+xHxrX6OwDJPlbJOKflph/o/tWbzHD77LcETLtvlxUxY
qUSAcgSylKl2tpZDDgm/hpPs/bEO8zIK7VkbZ2s7QMG5PHm0b7zX6164RJpM9LE8
xAowYBDBNj1VOhzZEN4NkVM72KPs6cvn4ENc3oKCzWV/L+DA5cuuWezex0pVgVhW
MJv8LXsEvbEuaDLwggc9Ra5mqnBQUhjPdtEJJHdLhh7qo8m1WWO8bdeN7S3z1Wtk
p/vhwuduymLLA4imujr2bm7vw4mwPV4fwGw=
-----END CERTIFICATE-----
